
merge:     file format elf64-x86-64


Disassembly of section .init:

0000000000001000 <_init>:
    1000:	f3 0f 1e fa          	endbr64 
    1004:	48 83 ec 08          	sub    $0x8,%rsp
    1008:	48 8b 05 d9 2f 00 00 	mov    0x2fd9(%rip),%rax        # 3fe8 <__gmon_start__@Base>
    100f:	48 85 c0             	test   %rax,%rax
    1012:	74 02                	je     1016 <_init+0x16>
    1014:	ff d0                	call   *%rax
    1016:	48 83 c4 08          	add    $0x8,%rsp
    101a:	c3                   	ret    

Disassembly of section .plt:

0000000000001020 <.plt>:
    1020:	ff 35 92 2f 00 00    	push   0x2f92(%rip)        # 3fb8 <_GLOBAL_OFFSET_TABLE_+0x8>
    1026:	f2 ff 25 93 2f 00 00 	bnd jmp *0x2f93(%rip)        # 3fc0 <_GLOBAL_OFFSET_TABLE_+0x10>
    102d:	0f 1f 00             	nopl   (%rax)
    1030:	f3 0f 1e fa          	endbr64 
    1034:	68 00 00 00 00       	push   $0x0
    1039:	f2 e9 e1 ff ff ff    	bnd jmp 1020 <_init+0x20>
    103f:	90                   	nop
    1040:	f3 0f 1e fa          	endbr64 
    1044:	68 01 00 00 00       	push   $0x1
    1049:	f2 e9 d1 ff ff ff    	bnd jmp 1020 <_init+0x20>
    104f:	90                   	nop

Disassembly of section .plt.got:

0000000000001050 <__cxa_finalize@plt>:
    1050:	f3 0f 1e fa          	endbr64 
    1054:	f2 ff 25 9d 2f 00 00 	bnd jmp *0x2f9d(%rip)        # 3ff8 <__cxa_finalize@GLIBC_2.2.5>
    105b:	0f 1f 44 00 00       	nopl   0x0(%rax,%rax,1)

Disassembly of section .plt.sec:

0000000000001060 <__stack_chk_fail@plt>:
    1060:	f3 0f 1e fa          	endbr64 
    1064:	f2 ff 25 5d 2f 00 00 	bnd jmp *0x2f5d(%rip)        # 3fc8 <__stack_chk_fail@GLIBC_2.4>
    106b:	0f 1f 44 00 00       	nopl   0x0(%rax,%rax,1)

0000000000001070 <printf@plt>:
    1070:	f3 0f 1e fa          	endbr64 
    1074:	f2 ff 25 55 2f 00 00 	bnd jmp *0x2f55(%rip)        # 3fd0 <printf@GLIBC_2.2.5>
    107b:	0f 1f 44 00 00       	nopl   0x0(%rax,%rax,1)

Disassembly of section .text:

0000000000001080 <_start>:
    1080:	f3 0f 1e fa          	endbr64 
    1084:	31 ed                	xor    %ebp,%ebp
    1086:	49 89 d1             	mov    %rdx,%r9
    1089:	5e                   	pop    %rsi
    108a:	48 89 e2             	mov    %rsp,%rdx
    108d:	48 83 e4 f0          	and    $0xfffffffffffffff0,%rsp
    1091:	50                   	push   %rax
    1092:	54                   	push   %rsp
    1093:	45 31 c0             	xor    %r8d,%r8d
    1096:	31 c9                	xor    %ecx,%ecx
    1098:	48 8d 3d a3 04 00 00 	lea    0x4a3(%rip),%rdi        # 1542 <main>
    109f:	ff 15 33 2f 00 00    	call   *0x2f33(%rip)        # 3fd8 <__libc_start_main@GLIBC_2.34>
    10a5:	f4                   	hlt    
    10a6:	66 2e 0f 1f 84 00 00 	cs nopw 0x0(%rax,%rax,1)
    10ad:	00 00 00 

00000000000010b0 <deregister_tm_clones>:
    10b0:	48 8d 3d 59 2f 00 00 	lea    0x2f59(%rip),%rdi        # 4010 <__TMC_END__>
    10b7:	48 8d 05 52 2f 00 00 	lea    0x2f52(%rip),%rax        # 4010 <__TMC_END__>
    10be:	48 39 f8             	cmp    %rdi,%rax
    10c1:	74 15                	je     10d8 <deregister_tm_clones+0x28>
    10c3:	48 8b 05 16 2f 00 00 	mov    0x2f16(%rip),%rax        # 3fe0 <_ITM_deregisterTMCloneTable@Base>
    10ca:	48 85 c0             	test   %rax,%rax
    10cd:	74 09                	je     10d8 <deregister_tm_clones+0x28>
    10cf:	ff e0                	jmp    *%rax
    10d1:	0f 1f 80 00 00 00 00 	nopl   0x0(%rax)
    10d8:	c3                   	ret    
    10d9:	0f 1f 80 00 00 00 00 	nopl   0x0(%rax)

00000000000010e0 <register_tm_clones>:
    10e0:	48 8d 3d 29 2f 00 00 	lea    0x2f29(%rip),%rdi        # 4010 <__TMC_END__>
    10e7:	48 8d 35 22 2f 00 00 	lea    0x2f22(%rip),%rsi        # 4010 <__TMC_END__>
    10ee:	48 29 fe             	sub    %rdi,%rsi
    10f1:	48 89 f0             	mov    %rsi,%rax
    10f4:	48 c1 ee 3f          	shr    $0x3f,%rsi
    10f8:	48 c1 f8 03          	sar    $0x3,%rax
    10fc:	48 01 c6             	add    %rax,%rsi
    10ff:	48 d1 fe             	sar    %rsi
    1102:	74 14                	je     1118 <register_tm_clones+0x38>
    1104:	48 8b 05 e5 2e 00 00 	mov    0x2ee5(%rip),%rax        # 3ff0 <_ITM_registerTMCloneTable@Base>
    110b:	48 85 c0             	test   %rax,%rax
    110e:	74 08                	je     1118 <register_tm_clones+0x38>
    1110:	ff e0                	jmp    *%rax
    1112:	66 0f 1f 44 00 00    	nopw   0x0(%rax,%rax,1)
    1118:	c3                   	ret    
    1119:	0f 1f 80 00 00 00 00 	nopl   0x0(%rax)

0000000000001120 <__do_global_dtors_aux>:
    1120:	f3 0f 1e fa          	endbr64 
    1124:	80 3d e5 2e 00 00 00 	cmpb   $0x0,0x2ee5(%rip)        # 4010 <__TMC_END__>
    112b:	75 2b                	jne    1158 <__do_global_dtors_aux+0x38>
    112d:	55                   	push   %rbp
    112e:	48 83 3d c2 2e 00 00 	cmpq   $0x0,0x2ec2(%rip)        # 3ff8 <__cxa_finalize@GLIBC_2.2.5>
    1135:	00 
    1136:	48 89 e5             	mov    %rsp,%rbp
    1139:	74 0c                	je     1147 <__do_global_dtors_aux+0x27>
    113b:	48 8b 3d c6 2e 00 00 	mov    0x2ec6(%rip),%rdi        # 4008 <__dso_handle>
    1142:	e8 09 ff ff ff       	call   1050 <__cxa_finalize@plt>
    1147:	e8 64 ff ff ff       	call   10b0 <deregister_tm_clones>
    114c:	c6 05 bd 2e 00 00 01 	movb   $0x1,0x2ebd(%rip)        # 4010 <__TMC_END__>
    1153:	5d                   	pop    %rbp
    1154:	c3                   	ret    
    1155:	0f 1f 00             	nopl   (%rax)
    1158:	c3                   	ret    
    1159:	0f 1f 80 00 00 00 00 	nopl   0x0(%rax)

0000000000001160 <frame_dummy>:
    1160:	f3 0f 1e fa          	endbr64 
    1164:	e9 77 ff ff ff       	jmp    10e0 <register_tm_clones>

0000000000001169 <merge>:
    1169:	f3 0f 1e fa          	endbr64 
    116d:	55                   	push   %rbp
    116e:	48 89 e5             	mov    %rsp,%rbp
    1171:	41 57                	push   %r15
    1173:	41 56                	push   %r14
    1175:	41 55                	push   %r13
    1177:	41 54                	push   %r12
    1179:	48 83 ec 70          	sub    $0x70,%rsp
    117d:	48 89 7d 88          	mov    %rdi,-0x78(%rbp)
    1181:	89 75 84             	mov    %esi,-0x7c(%rbp)
    1184:	89 55 80             	mov    %edx,-0x80(%rbp)
    1187:	89 8d 7c ff ff ff    	mov    %ecx,-0x84(%rbp)
    118d:	64 48 8b 04 25 28 00 	mov    %fs:0x28,%rax
    1194:	00 00 
    1196:	48 89 45 d8          	mov    %rax,-0x28(%rbp)
    119a:	31 c0                	xor    %eax,%eax
    119c:	48 89 e0             	mov    %rsp,%rax
    119f:	48 89 c6             	mov    %rax,%rsi
    11a2:	8b 55 80             	mov    -0x80(%rbp),%edx
    11a5:	8b 45 84             	mov    -0x7c(%rbp),%eax
    11a8:	01 d0                	add    %edx,%eax
    11aa:	83 c0 01             	add    $0x1,%eax
    11ad:	89 45 b0             	mov    %eax,-0x50(%rbp)
    11b0:	8b 85 7c ff ff ff    	mov    -0x84(%rbp),%eax
    11b6:	2b 45 80             	sub    -0x80(%rbp),%eax
    11b9:	89 45 b4             	mov    %eax,-0x4c(%rbp)
    11bc:	8b 45 b0             	mov    -0x50(%rbp),%eax
    11bf:	48 63 d0             	movslq %eax,%rdx
    11c2:	48 83 ea 01          	sub    $0x1,%rdx
    11c6:	48 89 55 b8          	mov    %rdx,-0x48(%rbp)
    11ca:	48 63 d0             	movslq %eax,%rdx
    11cd:	49 89 d6             	mov    %rdx,%r14
    11d0:	41 bf 00 00 00 00    	mov    $0x0,%r15d
    11d6:	48 63 d0             	movslq %eax,%rdx
    11d9:	49 89 d4             	mov    %rdx,%r12
    11dc:	41 bd 00 00 00 00    	mov    $0x0,%r13d
    11e2:	48 98                	cltq   
    11e4:	48 8d 14 85 00 00 00 	lea    0x0(,%rax,4),%rdx
    11eb:	00 
    11ec:	b8 10 00 00 00       	mov    $0x10,%eax
    11f1:	48 83 e8 01          	sub    $0x1,%rax
    11f5:	48 01 d0             	add    %rdx,%rax
    11f8:	bf 10 00 00 00       	mov    $0x10,%edi
    11fd:	ba 00 00 00 00       	mov    $0x0,%edx
    1202:	48 f7 f7             	div    %rdi
    1205:	48 6b c0 10          	imul   $0x10,%rax,%rax
    1209:	48 89 c1             	mov    %rax,%rcx
    120c:	48 81 e1 00 f0 ff ff 	and    $0xfffffffffffff000,%rcx
    1213:	48 89 e2             	mov    %rsp,%rdx
    1216:	48 29 ca             	sub    %rcx,%rdx
    1219:	48 39 d4             	cmp    %rdx,%rsp
    121c:	74 12                	je     1230 <merge+0xc7>
    121e:	48 81 ec 00 10 00 00 	sub    $0x1000,%rsp
    1225:	48 83 8c 24 f8 0f 00 	orq    $0x0,0xff8(%rsp)
    122c:	00 00 
    122e:	eb e9                	jmp    1219 <merge+0xb0>
    1230:	48 89 c2             	mov    %rax,%rdx
    1233:	81 e2 ff 0f 00 00    	and    $0xfff,%edx
    1239:	48 29 d4             	sub    %rdx,%rsp
    123c:	48 89 c2             	mov    %rax,%rdx
    123f:	81 e2 ff 0f 00 00    	and    $0xfff,%edx
    1245:	48 85 d2             	test   %rdx,%rdx
    1248:	74 10                	je     125a <merge+0xf1>
    124a:	25 ff 0f 00 00       	and    $0xfff,%eax
    124f:	48 83 e8 08          	sub    $0x8,%rax
    1253:	48 01 e0             	add    %rsp,%rax
    1256:	48 83 08 00          	orq    $0x0,(%rax)
    125a:	48 89 e0             	mov    %rsp,%rax
    125d:	48 83 c0 03          	add    $0x3,%rax
    1261:	48 c1 e8 02          	shr    $0x2,%rax
    1265:	48 c1 e0 02          	shl    $0x2,%rax
    1269:	48 89 45 c0          	mov    %rax,-0x40(%rbp)
    126d:	8b 45 b4             	mov    -0x4c(%rbp),%eax
    1270:	48 63 d0             	movslq %eax,%rdx
    1273:	48 83 ea 01          	sub    $0x1,%rdx
    1277:	48 89 55 c8          	mov    %rdx,-0x38(%rbp)
    127b:	48 63 d0             	movslq %eax,%rdx
    127e:	49 89 d2             	mov    %rdx,%r10
    1281:	41 bb 00 00 00 00    	mov    $0x0,%r11d
    1287:	48 63 d0             	movslq %eax,%rdx
    128a:	49 89 d0             	mov    %rdx,%r8
    128d:	41 b9 00 00 00 00    	mov    $0x0,%r9d
    1293:	48 98                	cltq   
    1295:	48 8d 14 85 00 00 00 	lea    0x0(,%rax,4),%rdx
    129c:	00 
    129d:	b8 10 00 00 00       	mov    $0x10,%eax
    12a2:	48 83 e8 01          	sub    $0x1,%rax
    12a6:	48 01 d0             	add    %rdx,%rax
    12a9:	bf 10 00 00 00       	mov    $0x10,%edi
    12ae:	ba 00 00 00 00       	mov    $0x0,%edx
    12b3:	48 f7 f7             	div    %rdi
    12b6:	48 6b c0 10          	imul   $0x10,%rax,%rax
    12ba:	48 89 c1             	mov    %rax,%rcx
    12bd:	48 81 e1 00 f0 ff ff 	and    $0xfffffffffffff000,%rcx
    12c4:	48 89 e2             	mov    %rsp,%rdx
    12c7:	48 29 ca             	sub    %rcx,%rdx
    12ca:	48 39 d4             	cmp    %rdx,%rsp
    12cd:	74 12                	je     12e1 <merge+0x178>
    12cf:	48 81 ec 00 10 00 00 	sub    $0x1000,%rsp
    12d6:	48 83 8c 24 f8 0f 00 	orq    $0x0,0xff8(%rsp)
    12dd:	00 00 
    12df:	eb e9                	jmp    12ca <merge+0x161>
    12e1:	48 89 c2             	mov    %rax,%rdx
    12e4:	81 e2 ff 0f 00 00    	and    $0xfff,%edx
    12ea:	48 29 d4             	sub    %rdx,%rsp
    12ed:	48 89 c2             	mov    %rax,%rdx
    12f0:	81 e2 ff 0f 00 00    	and    $0xfff,%edx
    12f6:	48 85 d2             	test   %rdx,%rdx
    12f9:	74 10                	je     130b <merge+0x1a2>
    12fb:	25 ff 0f 00 00       	and    $0xfff,%eax
    1300:	48 83 e8 08          	sub    $0x8,%rax
    1304:	48 01 e0             	add    %rsp,%rax
    1307:	48 83 08 00          	orq    $0x0,(%rax)
    130b:	48 89 e0             	mov    %rsp,%rax
    130e:	48 83 c0 03          	add    $0x3,%rax
    1312:	48 c1 e8 02          	shr    $0x2,%rax
    1316:	48 c1 e0 02          	shl    $0x2,%rax
    131a:	48 89 45 d0          	mov    %rax,-0x30(%rbp)
    131e:	c7 45 9c 00 00 00 00 	movl   $0x0,-0x64(%rbp)
    1325:	eb 2c                	jmp    1353 <merge+0x1ea>
    1327:	8b 55 84             	mov    -0x7c(%rbp),%edx
    132a:	8b 45 9c             	mov    -0x64(%rbp),%eax
    132d:	01 d0                	add    %edx,%eax
    132f:	48 98                	cltq   
    1331:	48 8d 14 85 00 00 00 	lea    0x0(,%rax,4),%rdx
    1338:	00 
    1339:	48 8b 45 88          	mov    -0x78(%rbp),%rax
    133d:	48 01 d0             	add    %rdx,%rax
    1340:	8b 08                	mov    (%rax),%ecx
    1342:	48 8b 45 c0          	mov    -0x40(%rbp),%rax
    1346:	8b 55 9c             	mov    -0x64(%rbp),%edx
    1349:	48 63 d2             	movslq %edx,%rdx
    134c:	89 0c 90             	mov    %ecx,(%rax,%rdx,4)
    134f:	83 45 9c 01          	addl   $0x1,-0x64(%rbp)
    1353:	8b 45 9c             	mov    -0x64(%rbp),%eax
    1356:	3b 45 b0             	cmp    -0x50(%rbp),%eax
    1359:	7c cc                	jl     1327 <merge+0x1be>
    135b:	c7 45 a0 00 00 00 00 	movl   $0x0,-0x60(%rbp)
    1362:	eb 2c                	jmp    1390 <merge+0x227>
    1364:	8b 55 80             	mov    -0x80(%rbp),%edx
    1367:	8b 45 a0             	mov    -0x60(%rbp),%eax
    136a:	01 d0                	add    %edx,%eax
    136c:	48 98                	cltq   
    136e:	48 8d 14 85 00 00 00 	lea    0x0(,%rax,4),%rdx
    1375:	00 
    1376:	48 8b 45 88          	mov    -0x78(%rbp),%rax
    137a:	48 01 d0             	add    %rdx,%rax
    137d:	8b 08                	mov    (%rax),%ecx
    137f:	48 8b 45 c0          	mov    -0x40(%rbp),%rax
    1383:	8b 55 a0             	mov    -0x60(%rbp),%edx
    1386:	48 63 d2             	movslq %edx,%rdx
    1389:	89 0c 90             	mov    %ecx,(%rax,%rdx,4)
    138c:	83 45 a0 01          	addl   $0x1,-0x60(%rbp)
    1390:	8b 45 a0             	mov    -0x60(%rbp),%eax
    1393:	3b 45 b4             	cmp    -0x4c(%rbp),%eax
    1396:	7c cc                	jl     1364 <merge+0x1fb>
    1398:	c7 45 a4 00 00 00 00 	movl   $0x0,-0x5c(%rbp)
    139f:	c7 45 a8 00 00 00 00 	movl   $0x0,-0x58(%rbp)
    13a6:	8b 45 84             	mov    -0x7c(%rbp),%eax
    13a9:	89 45 ac             	mov    %eax,-0x54(%rbp)
    13ac:	eb 74                	jmp    1422 <merge+0x2b9>
    13ae:	48 8b 45 c0          	mov    -0x40(%rbp),%rax
    13b2:	8b 55 a4             	mov    -0x5c(%rbp),%edx
    13b5:	48 63 d2             	movslq %edx,%rdx
    13b8:	8b 0c 90             	mov    (%rax,%rdx,4),%ecx
    13bb:	48 8b 45 d0          	mov    -0x30(%rbp),%rax
    13bf:	8b 55 a8             	mov    -0x58(%rbp),%edx
    13c2:	48 63 d2             	movslq %edx,%rdx
    13c5:	8b 04 90             	mov    (%rax,%rdx,4),%eax
    13c8:	39 c1                	cmp    %eax,%ecx
    13ca:	7f 2a                	jg     13f6 <merge+0x28d>
    13cc:	8b 45 ac             	mov    -0x54(%rbp),%eax
    13cf:	48 98                	cltq   
    13d1:	48 8d 14 85 00 00 00 	lea    0x0(,%rax,4),%rdx
    13d8:	00 
    13d9:	48 8b 45 88          	mov    -0x78(%rbp),%rax
    13dd:	48 8d 0c 02          	lea    (%rdx,%rax,1),%rcx
    13e1:	48 8b 45 c0          	mov    -0x40(%rbp),%rax
    13e5:	8b 55 a4             	mov    -0x5c(%rbp),%edx
    13e8:	48 63 d2             	movslq %edx,%rdx
    13eb:	8b 04 90             	mov    (%rax,%rdx,4),%eax
    13ee:	89 01                	mov    %eax,(%rcx)
    13f0:	83 45 a4 01          	addl   $0x1,-0x5c(%rbp)
    13f4:	eb 28                	jmp    141e <merge+0x2b5>
    13f6:	8b 45 ac             	mov    -0x54(%rbp),%eax
    13f9:	48 98                	cltq   
    13fb:	48 8d 14 85 00 00 00 	lea    0x0(,%rax,4),%rdx
    1402:	00 
    1403:	48 8b 45 88          	mov    -0x78(%rbp),%rax
    1407:	48 8d 0c 02          	lea    (%rdx,%rax,1),%rcx
    140b:	48 8b 45 d0          	mov    -0x30(%rbp),%rax
    140f:	8b 55 a8             	mov    -0x58(%rbp),%edx
    1412:	48 63 d2             	movslq %edx,%rdx
    1415:	8b 04 90             	mov    (%rax,%rdx,4),%eax
    1418:	89 01                	mov    %eax,(%rcx)
    141a:	83 45 a8 01          	addl   $0x1,-0x58(%rbp)
    141e:	83 45 ac 01          	addl   $0x1,-0x54(%rbp)
    1422:	8b 45 a4             	mov    -0x5c(%rbp),%eax
    1425:	3b 45 b0             	cmp    -0x50(%rbp),%eax
    1428:	7d 3a                	jge    1464 <merge+0x2fb>
    142a:	8b 45 a8             	mov    -0x58(%rbp),%eax
    142d:	3b 45 b4             	cmp    -0x4c(%rbp),%eax
    1430:	0f 8c 78 ff ff ff    	jl     13ae <merge+0x245>
    1436:	eb 2c                	jmp    1464 <merge+0x2fb>
    1438:	8b 45 ac             	mov    -0x54(%rbp),%eax
    143b:	48 98                	cltq   
    143d:	48 8d 14 85 00 00 00 	lea    0x0(,%rax,4),%rdx
    1444:	00 
    1445:	48 8b 45 88          	mov    -0x78(%rbp),%rax
    1449:	48 8d 0c 02          	lea    (%rdx,%rax,1),%rcx
    144d:	48 8b 45 c0          	mov    -0x40(%rbp),%rax
    1451:	8b 55 a4             	mov    -0x5c(%rbp),%edx
    1454:	48 63 d2             	movslq %edx,%rdx
    1457:	8b 04 90             	mov    (%rax,%rdx,4),%eax
    145a:	89 01                	mov    %eax,(%rcx)
    145c:	83 45 ac 01          	addl   $0x1,-0x54(%rbp)
    1460:	83 45 a4 01          	addl   $0x1,-0x5c(%rbp)
    1464:	8b 45 a4             	mov    -0x5c(%rbp),%eax
    1467:	3b 45 b0             	cmp    -0x50(%rbp),%eax
    146a:	7c cc                	jl     1438 <merge+0x2cf>
    146c:	eb 2c                	jmp    149a <merge+0x331>
    146e:	8b 45 ac             	mov    -0x54(%rbp),%eax
    1471:	48 98                	cltq   
    1473:	48 8d 14 85 00 00 00 	lea    0x0(,%rax,4),%rdx
    147a:	00 
    147b:	48 8b 45 88          	mov    -0x78(%rbp),%rax
    147f:	48 8d 0c 02          	lea    (%rdx,%rax,1),%rcx
    1483:	48 8b 45 d0          	mov    -0x30(%rbp),%rax
    1487:	8b 55 a8             	mov    -0x58(%rbp),%edx
    148a:	48 63 d2             	movslq %edx,%rdx
    148d:	8b 04 90             	mov    (%rax,%rdx,4),%eax
    1490:	89 01                	mov    %eax,(%rcx)
    1492:	83 45 ac 01          	addl   $0x1,-0x54(%rbp)
    1496:	83 45 a4 01          	addl   $0x1,-0x5c(%rbp)
    149a:	8b 45 a8             	mov    -0x58(%rbp),%eax
    149d:	3b 45 b4             	cmp    -0x4c(%rbp),%eax
    14a0:	7c cc                	jl     146e <merge+0x305>
    14a2:	48 89 f4             	mov    %rsi,%rsp
    14a5:	90                   	nop
    14a6:	48 8b 45 d8          	mov    -0x28(%rbp),%rax
    14aa:	64 48 2b 04 25 28 00 	sub    %fs:0x28,%rax
    14b1:	00 00 
    14b3:	74 05                	je     14ba <merge+0x351>
    14b5:	e8 a6 fb ff ff       	call   1060 <__stack_chk_fail@plt>
    14ba:	48 8d 65 e0          	lea    -0x20(%rbp),%rsp
    14be:	41 5c                	pop    %r12
    14c0:	41 5d                	pop    %r13
    14c2:	41 5e                	pop    %r14
    14c4:	41 5f                	pop    %r15
    14c6:	5d                   	pop    %rbp
    14c7:	c3                   	ret    

00000000000014c8 <mergesort>:
    14c8:	f3 0f 1e fa          	endbr64 
    14cc:	55                   	push   %rbp
    14cd:	48 89 e5             	mov    %rsp,%rbp
    14d0:	48 83 ec 20          	sub    $0x20,%rsp
    14d4:	48 89 7d e8          	mov    %rdi,-0x18(%rbp)
    14d8:	89 75 e4             	mov    %esi,-0x1c(%rbp)
    14db:	89 55 e0             	mov    %edx,-0x20(%rbp)
    14de:	8b 45 e4             	mov    -0x1c(%rbp),%eax
    14e1:	3b 45 e0             	cmp    -0x20(%rbp),%eax
    14e4:	7d 59                	jge    153f <mergesort+0x77>
    14e6:	8b 45 e0             	mov    -0x20(%rbp),%eax
    14e9:	2b 45 e4             	sub    -0x1c(%rbp),%eax
    14ec:	89 c2                	mov    %eax,%edx
    14ee:	c1 ea 1f             	shr    $0x1f,%edx
    14f1:	01 d0                	add    %edx,%eax
    14f3:	d1 f8                	sar    %eax
    14f5:	89 c2                	mov    %eax,%edx
    14f7:	8b 45 e4             	mov    -0x1c(%rbp),%eax
    14fa:	01 d0                	add    %edx,%eax
    14fc:	89 45 fc             	mov    %eax,-0x4(%rbp)
    14ff:	8b 55 fc             	mov    -0x4(%rbp),%edx
    1502:	8b 4d e4             	mov    -0x1c(%rbp),%ecx
    1505:	48 8b 45 e8          	mov    -0x18(%rbp),%rax
    1509:	89 ce                	mov    %ecx,%esi
    150b:	48 89 c7             	mov    %rax,%rdi
    150e:	e8 b5 ff ff ff       	call   14c8 <mergesort>
    1513:	8b 45 fc             	mov    -0x4(%rbp),%eax
    1516:	8d 48 01             	lea    0x1(%rax),%ecx
    1519:	8b 55 e0             	mov    -0x20(%rbp),%edx
    151c:	48 8b 45 e8          	mov    -0x18(%rbp),%rax
    1520:	89 ce                	mov    %ecx,%esi
    1522:	48 89 c7             	mov    %rax,%rdi
    1525:	e8 9e ff ff ff       	call   14c8 <mergesort>
    152a:	8b 4d e0             	mov    -0x20(%rbp),%ecx
    152d:	8b 55 fc             	mov    -0x4(%rbp),%edx
    1530:	8b 75 e4             	mov    -0x1c(%rbp),%esi
    1533:	48 8b 45 e8          	mov    -0x18(%rbp),%rax
    1537:	48 89 c7             	mov    %rax,%rdi
    153a:	e8 2a fc ff ff       	call   1169 <merge>
    153f:	90                   	nop
    1540:	c9                   	leave  
    1541:	c3                   	ret    

0000000000001542 <main>:
    1542:	f3 0f 1e fa          	endbr64 
    1546:	55                   	push   %rbp
    1547:	48 89 e5             	mov    %rsp,%rbp
    154a:	48 83 ec 50          	sub    $0x50,%rsp
    154e:	89 7d bc             	mov    %edi,-0x44(%rbp)
    1551:	48 89 75 b0          	mov    %rsi,-0x50(%rbp)
    1555:	64 48 8b 04 25 28 00 	mov    %fs:0x28,%rax
    155c:	00 00 
    155e:	48 89 45 f8          	mov    %rax,-0x8(%rbp)
    1562:	31 c0                	xor    %eax,%eax
    1564:	c7 45 d0 16 00 00 00 	movl   $0x16,-0x30(%rbp)
    156b:	c7 45 d4 0b 00 00 00 	movl   $0xb,-0x2c(%rbp)
    1572:	c7 45 d8 05 00 00 00 	movl   $0x5,-0x28(%rbp)
    1579:	c7 45 dc 59 00 00 00 	movl   $0x59,-0x24(%rbp)
    1580:	c7 45 e0 04 00 00 00 	movl   $0x4,-0x20(%rbp)
    1587:	c7 45 e4 01 00 00 00 	movl   $0x1,-0x1c(%rbp)
    158e:	c7 45 e8 4e 00 00 00 	movl   $0x4e,-0x18(%rbp)
    1595:	c7 45 cc 07 00 00 00 	movl   $0x7,-0x34(%rbp)
    159c:	8b 45 cc             	mov    -0x34(%rbp),%eax
    159f:	8d 50 ff             	lea    -0x1(%rax),%edx
    15a2:	48 8d 45 d0          	lea    -0x30(%rbp),%rax
    15a6:	be 00 00 00 00       	mov    $0x0,%esi
    15ab:	48 89 c7             	mov    %rax,%rdi
    15ae:	e8 15 ff ff ff       	call   14c8 <mergesort>
    15b3:	c7 45 c8 00 00 00 00 	movl   $0x0,-0x38(%rbp)
    15ba:	eb 23                	jmp    15df <main+0x9d>
    15bc:	8b 45 c8             	mov    -0x38(%rbp),%eax
    15bf:	48 98                	cltq   
    15c1:	8b 44 85 d0          	mov    -0x30(%rbp,%rax,4),%eax
    15c5:	89 c6                	mov    %eax,%esi
    15c7:	48 8d 05 36 0a 00 00 	lea    0xa36(%rip),%rax        # 2004 <_IO_stdin_used+0x4>
    15ce:	48 89 c7             	mov    %rax,%rdi
    15d1:	b8 00 00 00 00       	mov    $0x0,%eax
    15d6:	e8 95 fa ff ff       	call   1070 <printf@plt>
    15db:	83 45 c8 01          	addl   $0x1,-0x38(%rbp)
    15df:	8b 45 c8             	mov    -0x38(%rbp),%eax
    15e2:	3b 45 cc             	cmp    -0x34(%rbp),%eax
    15e5:	7c d5                	jl     15bc <main+0x7a>
    15e7:	b8 00 00 00 00       	mov    $0x0,%eax
    15ec:	48 8b 55 f8          	mov    -0x8(%rbp),%rdx
    15f0:	64 48 2b 14 25 28 00 	sub    %fs:0x28,%rdx
    15f7:	00 00 
    15f9:	74 05                	je     1600 <main+0xbe>
    15fb:	e8 60 fa ff ff       	call   1060 <__stack_chk_fail@plt>
    1600:	c9                   	leave  
    1601:	c3                   	ret    

Disassembly of section .fini:

0000000000001604 <_fini>:
    1604:	f3 0f 1e fa          	endbr64 
    1608:	48 83 ec 08          	sub    $0x8,%rsp
    160c:	48 83 c4 08          	add    $0x8,%rsp
    1610:	c3                   	ret    
